target datalayout = "e-m:e-p270:32:32-p271:32:32-p272:64:64-i64:64-i128:128-f80:128-n8:16:32:64-S128"
target triple = "x86_64-pc-linux-gnu"

%"struct.Yosys::RTLIL::SigSpec" = type { i32, i32, %"class.std::vector.114", %"class.std::vector.119" }
%"class.std::vector.114" = type { %"struct.std::_Vector_base.115" }
%"struct.std::_Vector_base.115" = type { %"struct.std::_Vector_base<Yosys::RTLIL::SigChunk, std::allocator<Yosys::RTLIL::SigChunk>>::_Vector_impl" }
%"struct.std::_Vector_base<Yosys::RTLIL::SigChunk, std::allocator<Yosys::RTLIL::SigChunk>>::_Vector_impl" = type { %"struct.std::_Vector_base<Yosys::RTLIL::SigChunk, std::allocator<Yosys::RTLIL::SigChunk>>::_Vector_impl_data" }
%"struct.std::_Vector_base<Yosys::RTLIL::SigChunk, std::allocator<Yosys::RTLIL::SigChunk>>::_Vector_impl_data" = type { ptr, ptr, ptr }
%"class.std::vector.119" = type { %"struct.std::_Vector_base.120" }
%"struct.std::_Vector_base.120" = type { %"struct.std::_Vector_base<Yosys::RTLIL::SigBit, std::allocator<Yosys::RTLIL::SigBit>>::_Vector_impl" }
%"struct.std::_Vector_base<Yosys::RTLIL::SigBit, std::allocator<Yosys::RTLIL::SigBit>>::_Vector_impl" = type { %"struct.std::_Vector_base<Yosys::RTLIL::SigBit, std::allocator<Yosys::RTLIL::SigBit>>::_Vector_impl_data" }
%"struct.std::_Vector_base<Yosys::RTLIL::SigBit, std::allocator<Yosys::RTLIL::SigBit>>::_Vector_impl_data" = type { ptr, ptr, ptr }
%"struct.(anonymous namespace)::XpropWorker::EncodedSig" = type { %"struct.Yosys::RTLIL::SigSpec", %"struct.Yosys::RTLIL::SigSpec", %"struct.Yosys::RTLIL::SigSpec", ptr }

; Function Attrs: inlinehint mustprogress uwtable
define internal void @_ZN12_GLOBAL__N_111XpropWorker10EncodedSigC2ERKS1_(ptr noundef nonnull align 8 dereferenceable(176) %0, ptr noundef nonnull align 8 dereferenceable(176) %1) unnamed_addr #9 align 2 personality ptr @__gxx_personality_v0 {
  %3 = alloca ptr, align 8
  %4 = alloca ptr, align 8
  %5 = alloca ptr, align 8
  %6 = alloca i32, align 4
  store ptr %0, ptr %3, align 8, !tbaa !1220
  store ptr %1, ptr %4, align 8, !tbaa !1220
  %7 = load ptr, ptr %3, align 8
  %8 = getelementptr inbounds nuw %"struct.(anonymous namespace)::XpropWorker::EncodedSig", ptr %7, i32 0, i32 0
  %9 = load ptr, ptr %4, align 8, !tbaa !1220
  %10 = getelementptr inbounds nuw %"struct.(anonymous namespace)::XpropWorker::EncodedSig", ptr %9, i32 0, i32 0
  call void @_ZN5Yosys5RTLIL7SigSpecC2ERKS1_(ptr noundef nonnull align 8 dereferenceable(56) %8, ptr noundef nonnull align 8 dereferenceable(56) %10)
  %11 = getelementptr inbounds nuw %"struct.(anonymous namespace)::XpropWorker::EncodedSig", ptr %7, i32 0, i32 1
  %12 = load ptr, ptr %4, align 8, !tbaa !1220
  %13 = getelementptr inbounds nuw %"struct.(anonymous namespace)::XpropWorker::EncodedSig", ptr %12, i32 0, i32 1
  invoke void @_ZN5Yosys5RTLIL7SigSpecC2ERKS1_(ptr noundef nonnull align 8 dereferenceable(56) %11, ptr noundef nonnull align 8 dereferenceable(56) %13)
          to label %14 unwind label %23

14:                                               ; preds = %2
  %15 = getelementptr inbounds nuw %"struct.(anonymous namespace)::XpropWorker::EncodedSig", ptr %7, i32 0, i32 2
  %16 = load ptr, ptr %4, align 8, !tbaa !1220
  %17 = getelementptr inbounds nuw %"struct.(anonymous namespace)::XpropWorker::EncodedSig", ptr %16, i32 0, i32 2
  invoke void @_ZN5Yosys5RTLIL7SigSpecC2ERKS1_(ptr noundef nonnull align 8 dereferenceable(56) %15, ptr noundef nonnull align 8 dereferenceable(56) %17)
          to label %18 unwind label %27

18:                                               ; preds = %14
  %19 = getelementptr inbounds nuw %"struct.(anonymous namespace)::XpropWorker::EncodedSig", ptr %7, i32 0, i32 3
  %20 = load ptr, ptr %4, align 8, !tbaa !1220
  %21 = getelementptr inbounds nuw %"struct.(anonymous namespace)::XpropWorker::EncodedSig", ptr %20, i32 0, i32 3
  %22 = load ptr, ptr %21, align 8, !tbaa !1212
  store ptr %22, ptr %19, align 8, !tbaa !1212
  ret void

23:                                               ; preds = %2
  %24 = landingpad { ptr, i32 }
          cleanup
  %25 = extractvalue { ptr, i32 } %24, 0
  store ptr %25, ptr %5, align 8
  %26 = extractvalue { ptr, i32 } %24, 1
  store i32 %26, ptr %6, align 4
  br label %31

27:                                               ; preds = %14
  %28 = landingpad { ptr, i32 }
          cleanup
  %29 = extractvalue { ptr, i32 } %28, 0
  store ptr %29, ptr %5, align 8
  %30 = extractvalue { ptr, i32 } %28, 1
  store i32 %30, ptr %6, align 4
  call void @_ZN5Yosys5RTLIL7SigSpecD2Ev(ptr noundef nonnull align 8 dereferenceable(56) %11) #3
  br label %31

31:                                               ; preds = %27, %23
  call void @_ZN5Yosys5RTLIL7SigSpecD2Ev(ptr noundef nonnull align 8 dereferenceable(56) %8) #3
  br label %32

32:                                               ; preds = %31
  %33 = load ptr, ptr %5, align 8
  %34 = load i32, ptr %6, align 4
  %35 = insertvalue { ptr, i32 } poison, ptr %33, 0
  %36 = insertvalue { ptr, i32 } %35, i32 %34, 1
  resume { ptr, i32 } %36
}